; ModuleID = '15/1633.c'
source_filename = "15/1633.c"
target datalayout = "e-m:e-p270:32:32-p271:32:32-p272:64:64-i64:64-f80:128-n8:16:32:64-S128"
target triple = "x86_64-pc-linux-gnu"

@.str = private unnamed_addr constant [3 x i8] c"%d\00", align 1
@s = common dso_local global [1000 x [1000 x i32]] zeroinitializer, align 16

; Function Attrs: noinline nounwind uwtable
define dso_local i32 @main() #0 {
  %1 = alloca i32, align 4
  %2 = alloca i32, align 4
  %3 = alloca i32, align 4
  %4 = alloca i32, align 4
  %5 = alloca i32, align 4
  %6 = alloca i32, align 4
  %7 = alloca i32, align 4
  %8 = alloca i32, align 4
  %9 = alloca i32, align 4
  store i32 0, i32* %1, align 4
  %10 = call i32 (i8*, ...) @__isoc99_scanf(i8* getelementptr inbounds ([3 x i8], [3 x i8]* @.str, i64 0, i64 0), i32* %2)
  store i32 0, i32* %3, align 4
  br label %11

11:                                               ; preds = %32, %0
  %12 = load i32, i32* %3, align 4
  %13 = load i32, i32* %2, align 4
  %14 = icmp slt i32 %12, %13
  br i1 %14, label %15, label %35

15:                                               ; preds = %11
  store i32 0, i32* %4, align 4
  br label %16

16:                                               ; preds = %28, %15
  %17 = load i32, i32* %4, align 4
  %18 = load i32, i32* %2, align 4
  %19 = icmp slt i32 %17, %18
  br i1 %19, label %20, label %31

20:                                               ; preds = %16
  %21 = load i32, i32* %3, align 4
  %22 = sext i32 %21 to i64
  %23 = getelementptr inbounds [1000 x [1000 x i32]], [1000 x [1000 x i32]]* @s, i64 0, i64 %22
  %24 = load i32, i32* %4, align 4
  %25 = sext i32 %24 to i64
  %26 = getelementptr inbounds [1000 x i32], [1000 x i32]* %23, i64 0, i64 %25
  %27 = call i32 (i8*, ...) @__isoc99_scanf(i8* getelementptr inbounds ([3 x i8], [3 x i8]* @.str, i64 0, i64 0), i32* %26)
  br label %28

28:                                               ; preds = %20
  %29 = load i32, i32* %4, align 4
  %30 = add nsw i32 %29, 1
  store i32 %30, i32* %4, align 4
  br label %16

31:                                               ; preds = %16
  br label %32

32:                                               ; preds = %31
  %33 = load i32, i32* %3, align 4
  %34 = add nsw i32 %33, 1
  store i32 %34, i32* %3, align 4
  br label %11

35:                                               ; preds = %11
  store i32 0, i32* %3, align 4
  br label %36

36:                                               ; preds = %79, %35
  %37 = load i32, i32* %3, align 4
  %38 = load i32, i32* %2, align 4
  %39 = icmp slt i32 %37, %38
  br i1 %39, label %40, label %82

40:                                               ; preds = %36
  store i32 0, i32* %4, align 4
  br label %41

41:                                               ; preds = %58, %40
  %42 = load i32, i32* %4, align 4
  %43 = load i32, i32* %2, align 4
  %44 = icmp slt i32 %42, %43
  br i1 %44, label %45, label %61

45:                                               ; preds = %41
  %46 = load i32, i32* %3, align 4
  %47 = sext i32 %46 to i64
  %48 = getelementptr inbounds [1000 x [1000 x i32]], [1000 x [1000 x i32]]* @s, i64 0, i64 %47
  %49 = load i32, i32* %4, align 4
  %50 = sext i32 %49 to i64
  %51 = getelementptr inbounds [1000 x i32], [1000 x i32]* %48, i64 0, i64 %50
  %52 = load i32, i32* %51, align 4
  %53 = icmp eq i32 %52, 0
  br i1 %53, label %54, label %57

54:                                               ; preds = %45
  %55 = load i32, i32* %3, align 4
  store i32 %55, i32* %6, align 4
  %56 = load i32, i32* %4, align 4
  store i32 %56, i32* %7, align 4
  br label %61

57:                                               ; preds = %45
  br label %58

58:                                               ; preds = %57
  %59 = load i32, i32* %4, align 4
  %60 = add nsw i32 %59, 1
  store i32 %60, i32* %4, align 4
  br label %41

61:                                               ; preds = %54, %41
  %62 = load i32, i32* %4, align 4
  %63 = load i32, i32* %2, align 4
  %64 = icmp eq i32 %62, %63
  br i1 %64, label %65, label %77

65:                                               ; preds = %61
  %66 = load i32, i32* %3, align 4
  %67 = sext i32 %66 to i64
  %68 = getelementptr inbounds [1000 x [1000 x i32]], [1000 x [1000 x i32]]* @s, i64 0, i64 %67
  %69 = load i32, i32* %4, align 4
  %70 = sub nsw i32 %69, 1
  %71 = sext i32 %70 to i64
  %72 = getelementptr inbounds [1000 x i32], [1000 x i32]* %68, i64 0, i64 %71
  %73 = load i32, i32* %72, align 4
  %74 = icmp eq i32 %73, 0
  br i1 %74, label %75, label %76

75:                                               ; preds = %65
  br label %82

76:                                               ; preds = %65
  br label %78

77:                                               ; preds = %61
  br label %82

78:                                               ; preds = %76
  br label %79

79:                                               ; preds = %78
  %80 = load i32, i32* %3, align 4
  %81 = add nsw i32 %80, 1
  store i32 %81, i32* %3, align 4
  br label %36

82:                                               ; preds = %77, %75, %36
  %83 = load i32, i32* %2, align 4
  %84 = sub nsw i32 %83, 1
  store i32 %84, i32* %3, align 4
  br label %85

85:                                               ; preds = %124, %82
  %86 = load i32, i32* %3, align 4
  %87 = icmp sge i32 %86, 0
  br i1 %87, label %88, label %127

88:                                               ; preds = %85
  %89 = load i32, i32* %2, align 4
  %90 = sub nsw i32 %89, 1
  store i32 %90, i32* %4, align 4
  br label %91

91:                                               ; preds = %107, %88
  %92 = load i32, i32* %4, align 4
  %93 = icmp sge i32 %92, 0
  br i1 %93, label %94, label %110

94:                                               ; preds = %91
  %95 = load i32, i32* %3, align 4
  %96 = sext i32 %95 to i64
  %97 = getelementptr inbounds [1000 x [1000 x i32]], [1000 x [1000 x i32]]* @s, i64 0, i64 %96
  %98 = load i32, i32* %4, align 4
  %99 = sext i32 %98 to i64
  %100 = getelementptr inbounds [1000 x i32], [1000 x i32]* %97, i64 0, i64 %99
  %101 = load i32, i32* %100, align 4
  %102 = icmp eq i32 %101, 0
  br i1 %102, label %103, label %106

103:                                              ; preds = %94
  %104 = load i32, i32* %3, align 4
  store i32 %104, i32* %8, align 4
  %105 = load i32, i32* %4, align 4
  store i32 %105, i32* %9, align 4
  br label %110

106:                                              ; preds = %94
  br label %107

107:                                              ; preds = %106
  %108 = load i32, i32* %4, align 4
  %109 = add nsw i32 %108, -1
  store i32 %109, i32* %4, align 4
  br label %91

110:                                              ; preds = %103, %91
  %111 = load i32, i32* %4, align 4
  %112 = icmp eq i32 %111, -1
  br i1 %112, label %113, label %122

113:                                              ; preds = %110
  %114 = load i32, i32* %3, align 4
  %115 = sext i32 %114 to i64
  %116 = getelementptr inbounds [1000 x [1000 x i32]], [1000 x [1000 x i32]]* @s, i64 0, i64 %115
  %117 = getelementptr inbounds [1000 x i32], [1000 x i32]* %116, i64 0, i64 0
  %118 = load i32, i32* %117, align 16
  %119 = icmp eq i32 %118, 0
  br i1 %119, label %120, label %121

120:                                              ; preds = %113
  br label %127

121:                                              ; preds = %113
  br label %123

122:                                              ; preds = %110
  br label %127

123:                                              ; preds = %121
  br label %124

124:                                              ; preds = %123
  %125 = load i32, i32* %3, align 4
  %126 = add nsw i32 %125, -1
  store i32 %126, i32* %3, align 4
  br label %85

127:                                              ; preds = %122, %120, %85
  %128 = load i32, i32* %9, align 4
  %129 = load i32, i32* %7, align 4
  %130 = sub nsw i32 %128, %129
  %131 = sub nsw i32 %130, 1
  %132 = load i32, i32* %8, align 4
  %133 = load i32, i32* %6, align 4
  %134 = sub nsw i32 %132, %133
  %135 = sub nsw i32 %134, 1
  %136 = mul nsw i32 %131, %135
  store i32 %136, i32* %5, align 4
  %137 = load i32, i32* %5, align 4
  %138 = call i32 (i8*, ...) @printf(i8* getelementptr inbounds ([3 x i8], [3 x i8]* @.str, i64 0, i64 0), i32 %137)
  ret i32 0
}

declare dso_local i32 @__isoc99_scanf(i8*, ...) #1

declare dso_local i32 @printf(i8*, ...) #1


!llvm.module.flags = !{!0}
!llvm.ident = !{!1}

!0 = !{i32 1, !"wchar_size", i32 4}
!1 = !{!"clang version 10.0.0-4ubuntu1 "}
